; Function Attrs: mustprogress nounwind uwtable
define dso_local void @_ZN4Luau7CodeGen19SharedCodeAllocatorD2Ev(ptr noundef nonnull align 8 dereferenceable(112) %0) unnamed_addr #0 align 2 personality ptr @__gxx_personality_v0 {
  %2 = getelementptr inbounds i8, ptr %0, i64 40
  tail call void @_ZNSt10_HashtableISt5arrayIhLm16EESt4pairIKS1_St10unique_ptrIN4Luau7CodeGen12NativeModuleESt14default_deleteIS7_EEESaISB_ENSt8__detail10_Select1stESt8equal_toIvENS6_19SharedCodeAllocator12ModuleIdHashENSD_18_Mod_range_hashingENSD_20_Default_ranged_hashENSD_20_Prime_rehash_policyENSD_17_Hashtable_traitsILb0ELb0ELb1EEEE5clearEv(ptr noundef nonnull align 8 dereferenceable(56) %2) #20
  %3 = load ptr, ptr %2, align 8
  %4 = getelementptr inbounds i8, ptr %0, i64 88
  %5 = icmp eq ptr %4, %3
  br i1 %5, label %_ZNSt13unordered_mapISt5arrayIhLm16EESt10unique_ptrIN4Luau7CodeGen12NativeModuleESt14default_deleteIS5_EENS4_19SharedCodeAllocator12ModuleIdHashESt8equal_toIvESaISt4pairIKS1_S8_EEED2Ev.exit, label %6

6:                                                ; preds = %1
  %7 = getelementptr inbounds i8, ptr %0, i64 48
  %8 = load i64, ptr %7, align 8
  %9 = shl i64 %8, 3
  tail call void @_ZdlPvm(ptr noundef %3, i64 noundef %9) #22
  br label %_ZNSt13unordered_mapISt5arrayIhLm16EESt10unique_ptrIN4Luau7CodeGen12NativeModuleESt14default_deleteIS5_EENS4_19SharedCodeAllocator12ModuleIdHashESt8equal_toIvESaISt4pairIKS1_S8_EEED2Ev.exit

_ZNSt13unordered_mapISt5arrayIhLm16EESt10unique_ptrIN4Luau7CodeGen12NativeModuleESt14default_deleteIS5_EENS4_19SharedCodeAllocator12ModuleIdHashESt8equal_toIvESaISt4pairIKS1_S8_EEED2Ev.exit: ; preds = %1, %6
  ret void
}